Certificate:
    Data:
        Version: 3 (0x2)
        Serial Number:
            c3:33:85:96:fb:98:eb:c8:91:6c:5c:5e:f8:0c:b3:a9
    Signature Algorithm: sha256WithRSAEncryption
        Issuer: CN=Easy-RSA CA
        Validity
            Not Before: Jul  3 13:37:49 2021 GMT
            Not After : Oct  6 13:37:49 2023 GMT
        Subject: CN=client
        Subject Public Key Info:
            Public Key Algorithm: rsaEncryption
                Public-Key: (2048 bit)
                Modulus:
                    00:c2:c7:90:ef:df:d6:54:49:96:6a:15:ae:78:ae:
                    42:82:81:d8:34:df:de:90:0b:5f:81:db:91:b0:61:
                    ad:b7:d2:d1:47:0f:38:a3:a1:17:62:92:58:6c:55:
                    e4:50:e3:54:06:4f:40:e5:89:a3:d5:e5:40:51:b5:
                    fa:32:4d:1c:db:98:e2:51:1f:6b:15:12:1d:cd:c5:
                    02:d1:59:c0:88:a4:46:94:d9:b1:d7:4f:ef:18:c6:
                    0c:fc:01:5d:a1:d6:50:49:48:b6:7b:3e:a4:1d:a6:
                    68:45:42:05:68:66:50:0a:c5:4a:1a:d9:9a:e0:79:
                    09:34:58:31:54:b6:98:cc:2d:75:a3:65:8a:b9:15:
                    74:35:f2:7d:fd:1a:c8:71:aa:9b:27:a1:92:a9:ac:
                    a1:d3:26:61:18:25:fb:24:56:7a:d7:80:07:ef:ae:
                    d9:5a:a0:6e:f9:cb:bb:0e:ed:13:e1:5f:8d:6c:0f:
                    d7:72:4a:3b:f5:24:25:b2:fd:7e:35:a2:bc:63:4b:
                    72:e4:a1:9e:92:66:c4:80:ba:10:83:76:45:29:08:
                    f9:01:91:62:bf:1e:e3:b4:48:eb:9a:98:0f:b1:98:
                    65:6e:16:4e:68:c2:7c:28:d5:7a:f2:f4:64:09:93:
                    8a:e9:f3:86:c4:54:6c:d7:fa:11:d7:82:c0:f2:3c:
                    14:ff
                Exponent: 65537 (0x10001)
        X509v3 extensions:
            X509v3 Basic Constraints: 
                CA:FALSE
            X509v3 Subject Key Identifier: 
                6D:99:1C:37:DD:C5:62:96:76:77:CF:32:47:CD:0C:DC:BE:D8:D2:D9
            X509v3 Authority Key Identifier: 
                keyid:C9:23:CC:CB:6C:BC:CB:A3:BF:7C:C3:45:4D:C1:FA:06:8B:9A:0D:D6
                DirName:/CN=Easy-RSA CA
                serial:B1:0D:04:50:23:93:2C:EF

            X509v3 Extended Key Usage: 
                TLS Web Client Authentication
            X509v3 Key Usage: 
                Digital Signature
    Signature Algorithm: sha256WithRSAEncryption
         38:7b:97:7f:53:13:55:4f:b8:6f:d5:df:31:ed:a1:7c:36:62:
         f8:4d:43:91:68:4d:0a:15:3f:24:74:43:d8:d1:6f:de:42:f6:
         c4:ee:96:22:00:45:92:b9:4d:94:65:ea:79:d1:d4:2f:29:bb:
         c1:09:27:39:75:03:11:82:fc:76:ca:06:e3:ee:4a:8d:97:cd:
         71:a5:74:6e:80:b4:83:97:24:3b:14:20:57:3a:e0:10:a5:fd:
         ba:44:57:ad:c0:89:2c:89:d6:4e:2f:fd:4b:79:8b:32:b4:fc:
         b8:7a:f6:c8:1c:45:9a:d9:b0:7b:5c:ee:fa:fb:e3:78:d5:fa:
         d7:30:6b:82:67:d6:25:51:f6:f7:3a:e2:00:6e:c4:00:37:12:
         b3:dd:65:de:68:b1:6e:b6:62:c7:e6:95:aa:06:f3:05:9b:82:
         61:83:da:77:31:42:70:92:e4:d6:2d:3b:e3:f8:62:a8:7a:84:
         25:66:e6:97:d2:53:0a:80:6d:cb:3e:a4:aa:ed:3e:76:c6:bd:
         2b:87:38:5e:d6:d8:6b:e3:44:3b:25:f2:a8:0b:58:67:f9:8f:
         8b:2a:e0:92:01:e2:76:30:a6:ec:d7:0b:09:ef:72:b1:53:cb:
         2b:33:00:6e:31:31:5e:9a:1c:cc:6f:91:6b:a3:da:97:65:c8:
         0e:9f:8f:32
-----BEGIN CERTIFICATE-----
MIIDSjCCAjKgAwIBAgIRAMMzhZb7mOvIkWxcXvgMs6kwDQYJKoZIhvcNAQELBQAw
FjEUMBIGA1UEAwwLRWFzeS1SU0EgQ0EwHhcNMjEwNzAzMTMzNzQ5WhcNMjMxMDA2
MTMzNzQ5WjARMQ8wDQYDVQQDDAZjbGllbnQwggEiMA0GCSqGSIb3DQEBAQUAA4IB
DwAwggEKAoIBAQDCx5Dv39ZUSZZqFa54rkKCgdg0396QC1+B25GwYa230tFHDzij
oRdiklhsVeRQ41QGT0DliaPV5UBRtfoyTRzbmOJRH2sVEh3NxQLRWcCIpEaU2bHX
T+8Yxgz8AV2h1lBJSLZ7PqQdpmhFQgVoZlAKxUoa2ZrgeQk0WDFUtpjMLXWjZYq5
FXQ18n39GshxqpsnoZKprKHTJmEYJfskVnrXgAfvrtlaoG75y7sO7RPhX41sD9dy
Sjv1JCWy/X41orxjS3LkoZ6SZsSAuhCDdkUpCPkBkWK/HuO0SOuamA+xmGVuFk5o
wnwo1Xry9GQJk4rp84bEVGzX+hHXgsDyPBT/AgMBAAGjgZcwgZQwCQYDVR0TBAIw
ADAdBgNVHQ4EFgQUbZkcN93FYpZ2d88yR80M3L7Y0tkwRgYDVR0jBD8wPYAUySPM
y2y8y6O/fMNFTcH6BouaDdahGqQYMBYxFDASBgNVBAMMC0Vhc3ktUlNBIENBggkA
sQ0EUCOTLO8wEwYDVR0lBAwwCgYIKwYBBQUHAwIwCwYDVR0PBAQDAgeAMA0GCSqG
SIb3DQEBCwUAA4IBAQA4e5d/UxNVT7hv1d8x7aF8NmL4TUORaE0KFT8kdEPY0W/e
QvbE7pYiAEWSuU2UZep50dQvKbvBCSc5dQMRgvx2ygbj7kqNl81xpXRugLSDlyQ7
FCBXOuAQpf26RFetwIksidZOL/1LeYsytPy4evbIHEWa2bB7XO76++N41frXMGuC
Z9YlUfb3OuIAbsQANxKz3WXeaLFutmLH5pWqBvMFm4Jhg9p3MUJwkuTWLTvj+GKo
eoQlZuaX0lMKgG3LPqSq7T52xr0rhzhe1thr40Q7JfKoC1hn+Y+LKuCSAeJ2MKbs
1wsJ73KxU8srMwBuMTFemhzMb5Fro9qXZcgOn48y
-----END CERTIFICATE-----
