Certificate:
    Data:
        Version: 3 (0x2)
        Serial Number:
            45:83:9b:29:9d:a7:9e:b7:e8:6d:9b:8d:0f:9e:cf:35
    Signature Algorithm: sha256WithRSAEncryption
        Issuer: CN=Easy-RSA CA
        Validity
            Not Before: Jul  3 14:05:11 2021 GMT
            Not After : Oct  6 14:05:11 2023 GMT
        Subject: CN=server
        Subject Public Key Info:
            Public Key Algorithm: rsaEncryption
                Public-Key: (2048 bit)
                Modulus:
                    00:b9:92:55:a7:5c:73:cf:93:37:00:ee:c1:1f:f2:
                    36:ba:f9:cb:ec:3a:eb:6c:72:f1:f4:f5:d6:b0:8a:
                    e4:76:8c:0c:1e:c6:6f:26:36:b5:ad:46:11:2e:3b:
                    44:2d:91:8a:d3:f9:9d:2d:8f:bc:6a:dd:28:11:8e:
                    82:1b:37:26:3e:fe:66:e1:c2:77:0e:5d:7a:f5:ba:
                    9f:07:bd:d6:55:8e:84:a4:0b:10:03:1f:51:19:ac:
                    e9:30:23:74:90:af:a3:09:31:b3:e1:e2:58:2f:1d:
                    df:36:c8:86:fb:d7:b8:ec:8c:d9:65:34:a9:d3:7a:
                    84:8b:65:76:db:3a:29:78:8d:b8:33:d9:f7:45:27:
                    43:55:1a:6b:a2:10:e3:13:60:83:99:65:0b:a9:12:
                    01:2a:83:55:f9:87:39:cd:4a:61:4b:ab:42:0e:b4:
                    04:05:4b:03:e6:b3:6c:56:1e:98:1f:ab:af:e7:17:
                    00:c4:ef:c1:fc:37:0d:f8:f0:b5:97:33:13:cf:e5:
                    ea:4b:97:18:b6:21:01:e2:cf:44:a4:80:76:17:a3:
                    24:86:bb:0a:6f:08:4b:66:b4:3d:7e:2f:76:7c:57:
                    ac:a3:94:38:1f:31:7b:27:eb:2c:8f:4c:35:77:72:
                    f3:a6:fb:df:4a:9e:82:a3:74:fc:10:d0:7e:8a:fc:
                    7e:91
                Exponent: 65537 (0x10001)
        X509v3 extensions:
            X509v3 Basic Constraints: 
                CA:FALSE
            X509v3 Subject Key Identifier: 
                0C:45:16:25:42:BE:8A:3A:5C:11:8B:B1:3C:38:DA:90:FA:19:91:72
            X509v3 Authority Key Identifier: 
                keyid:C9:23:CC:CB:6C:BC:CB:A3:BF:7C:C3:45:4D:C1:FA:06:8B:9A:0D:D6
                DirName:/CN=Easy-RSA CA
                serial:B1:0D:04:50:23:93:2C:EF

            X509v3 Extended Key Usage: 
                TLS Web Server Authentication
            X509v3 Key Usage: 
                Digital Signature, Key Encipherment
            X509v3 Subject Alternative Name: 
                DNS:server
    Signature Algorithm: sha256WithRSAEncryption
         c4:02:3d:25:72:2e:46:ae:c4:ba:ce:d2:82:0a:13:c4:91:ee:
         45:81:55:a9:5f:bf:b5:e4:b7:ca:3b:3f:52:99:87:4b:7e:db:
         90:7d:cd:09:04:d4:ca:2e:2c:ea:4a:92:04:fb:e1:2a:f9:08:
         54:ad:41:1b:35:5b:28:34:83:d8:0c:26:89:bd:fb:12:c6:61:
         84:49:13:18:44:45:2f:95:ab:04:38:16:84:b0:93:4a:b0:ad:
         66:46:28:02:f7:1b:8e:88:d2:58:a2:3a:b0:21:47:f1:44:ac:
         e8:29:fc:28:25:c4:9b:b9:66:81:05:36:c1:b8:40:a5:2b:e3:
         02:2d:ed:62:54:4d:c1:a9:f9:d0:93:77:7e:e4:58:3b:e9:a4:
         c9:e3:d2:7b:b1:64:b6:6d:8c:c0:ed:ea:51:d2:19:d7:42:6d:
         bb:55:4d:99:04:85:d1:6f:b1:4c:c0:96:5a:2a:68:00:da:36:
         5b:c2:82:87:93:80:0a:9c:ce:f0:e6:37:ce:5c:0b:2e:f0:f3:
         dd:3a:23:f8:d6:7d:71:e8:f7:0b:d2:2e:60:95:60:86:2f:da:
         db:38:bb:ed:ce:0d:47:ba:53:55:2e:45:5c:94:12:75:64:ab:
         aa:0a:89:d3:5f:09:63:e3:5f:e3:f1:f3:81:a8:ae:64:e1:b9:
         ad:e3:9c:45
-----BEGIN CERTIFICATE-----
MIIDXDCCAkSgAwIBAgIQRYObKZ2nnrfobZuND57PNTANBgkqhkiG9w0BAQsFADAW
MRQwEgYDVQQDDAtFYXN5LVJTQSBDQTAeFw0yMTA3MDMxNDA1MTFaFw0yMzEwMDYx
NDA1MTFaMBExDzANBgNVBAMMBnNlcnZlcjCCASIwDQYJKoZIhvcNAQEBBQADggEP
ADCCAQoCggEBALmSVadcc8+TNwDuwR/yNrr5y+w662xy8fT11rCK5HaMDB7GbyY2
ta1GES47RC2RitP5nS2PvGrdKBGOghs3Jj7+ZuHCdw5devW6nwe91lWOhKQLEAMf
URms6TAjdJCvowkxs+HiWC8d3zbIhvvXuOyM2WU0qdN6hItldts6KXiNuDPZ90Un
Q1Uaa6IQ4xNgg5llC6kSASqDVfmHOc1KYUurQg60BAVLA+azbFYemB+rr+cXAMTv
wfw3DfjwtZczE8/l6kuXGLYhAeLPRKSAdhejJIa7Cm8IS2a0PX4vdnxXrKOUOB8x
eyfrLI9MNXdy86b730qegqN0/BDQfor8fpECAwEAAaOBqjCBpzAJBgNVHRMEAjAA
MB0GA1UdDgQWBBQMRRYlQr6KOlwRi7E8ONqQ+hmRcjBGBgNVHSMEPzA9gBTJI8zL
bLzLo798w0VNwfoGi5oN1qEapBgwFjEUMBIGA1UEAwwLRWFzeS1SU0EgQ0GCCQCx
DQRQI5Ms7zATBgNVHSUEDDAKBggrBgEFBQcDATALBgNVHQ8EBAMCBaAwEQYDVR0R
BAowCIIGc2VydmVyMA0GCSqGSIb3DQEBCwUAA4IBAQDEAj0lci5GrsS6ztKCChPE
ke5FgVWpX7+15LfKOz9SmYdLftuQfc0JBNTKLizqSpIE++Eq+QhUrUEbNVsoNIPY
DCaJvfsSxmGESRMYREUvlasEOBaEsJNKsK1mRigC9xuOiNJYojqwIUfxRKzoKfwo
JcSbuWaBBTbBuEClK+MCLe1iVE3BqfnQk3d+5Fg76aTJ49J7sWS2bYzA7epR0hnX
Qm27VU2ZBIXRb7FMwJZaKmgA2jZbwoKHk4AKnM7w5jfOXAsu8PPdOiP41n1x6PcL
0i5glWCGL9rbOLvtzg1HulNVLkVclBJ1ZKuqConTXwlj41/j8fOBqK5k4bmt45xF
-----END CERTIFICATE-----
